; Function Attrs: mustprogress nounwind uwtable
define hidden noundef zeroext i1 @_ZNK14ZPageAllocator25is_alloc_stalling_for_oldEv(ptr noundef nonnull align 8 dereferenceable(609) %0) local_unnamed_addr #1 align 2 {
  %2 = tail call i32 @pthread_mutex_lock(ptr noundef nonnull %0) #13
  %3 = getelementptr inbounds i8, ptr %0, i64 496
  %4 = getelementptr inbounds i8, ptr %0, i64 512
  %5 = load i64, ptr %4, align 8
  %6 = icmp eq i64 %5, 0
  %7 = load ptr, ptr %3, align 8
  %8 = ptrtoint ptr %7 to i64
  %9 = add i64 %8, -72
  %10 = inttoptr i64 %9 to ptr
  %11 = icmp eq i64 %9, 0
  %12 = select i1 %6, i1 true, i1 %11
  br i1 %12, label %_ZN7ZLockerI5ZLockED2Ev.exit, label %13

13:                                               ; preds = %1
  %14 = getelementptr i8, ptr %10, i64 20
  %.val = load i32, ptr %14, align 4
  %15 = load ptr, ptr @_ZN11ZGeneration6_youngE, align 8
  %16 = getelementptr inbounds i8, ptr %15, i64 3220
  %17 = load i32, ptr %16, align 4
  %.not = icmp eq i32 %17, %.val
  br i1 %.not, label %_ZN7ZLockerI5ZLockED2Ev.exit, label %18

18:                                               ; preds = %13
  %19 = getelementptr i8, ptr %10, i64 24
  %.val6 = load i32, ptr %19, align 8
  %20 = load ptr, ptr @_ZN11ZGeneration4_oldE, align 8
  %21 = getelementptr inbounds i8, ptr %20, i64 3220
  %22 = load i32, ptr %21, align 4
  %.not7 = icmp eq i32 %22, %.val6
  br label %_ZN7ZLockerI5ZLockED2Ev.exit

_ZN7ZLockerI5ZLockED2Ev.exit:                     ; preds = %13, %18, %1
  %.0 = phi i1 [ false, %1 ], [ false, %13 ], [ %.not7, %18 ]
  %23 = tail call i32 @pthread_mutex_unlock(ptr noundef nonnull %0) #13
  ret i1 %.0
}